target datalayout = "e-m:e-p270:32:32-p271:32:32-p272:64:64-i64:64-i128:128-f80:128-n8:16:32:64-S128"
target triple = "x86_64-pc-linux-gnu"

%"class.arrow::DataType" = type { %"class.arrow::detail::Fingerprintable", %"class.std::enable_shared_from_this", i32, %"class.std::vector.0" }
%"class.arrow::detail::Fingerprintable" = type { ptr, %"struct.std::atomic", %"struct.std::atomic" }
%"struct.std::atomic" = type { %"struct.std::__atomic_base" }
%"struct.std::__atomic_base" = type { ptr }
%"class.std::enable_shared_from_this" = type { %"class.std::weak_ptr" }
%"class.std::weak_ptr" = type { %"class.std::__weak_ptr" }
%"class.std::__weak_ptr" = type { ptr, %"class.std::__weak_count" }
%"class.std::__weak_count" = type { ptr }
%"class.std::vector.0" = type { %"struct.std::_Vector_base.1" }
%"struct.std::_Vector_base.1" = type { %"struct.std::_Vector_base<std::shared_ptr<arrow::Field>, std::allocator<std::shared_ptr<arrow::Field>>>::_Vector_impl" }
%"struct.std::_Vector_base<std::shared_ptr<arrow::Field>, std::allocator<std::shared_ptr<arrow::Field>>>::_Vector_impl" = type { %"struct.std::_Vector_base<std::shared_ptr<arrow::Field>, std::allocator<std::shared_ptr<arrow::Field>>>::_Vector_impl_data" }
%"struct.std::_Vector_base<std::shared_ptr<arrow::Field>, std::allocator<std::shared_ptr<arrow::Field>>>::_Vector_impl_data" = type { ptr, ptr, ptr }
%"class.std::__shared_count" = type { ptr }
%"class.std::shared_ptr" = type { %"class.std::__shared_ptr" }
%"class.std::__shared_ptr" = type { ptr, %"class.std::__shared_count" }
%"class.arrow::FixedSizeListType" = type <{ %"class.arrow::BaseListType", i32, [4 x i8] }>
%"class.arrow::BaseListType" = type { %"class.arrow::NestedType" }
%"class.arrow::NestedType" = type { %"class.arrow::DataType" }
%"class.std::__cxx11::basic_string" = type { %"struct.std::__cxx11::basic_string<char>::_Alloc_hider", i64, %union.anon }
%"struct.std::__cxx11::basic_string<char>::_Alloc_hider" = type { ptr }
%union.anon = type { i64, [8 x i8] }
%"class.std::shared_ptr.44" = type { %"class.std::__shared_ptr.45" }
%"class.std::__shared_ptr.45" = type { ptr, %"class.std::__shared_count" }
%"class.arrow::Field" = type { %"class.arrow::detail::Fingerprintable", %"class.std::__cxx11::basic_string", %"class.std::shared_ptr", i8, %"class.std::shared_ptr.49" }
%"class.std::shared_ptr.49" = type { %"class.std::__shared_ptr.50" }
%"class.std::__shared_ptr.50" = type { ptr, %"class.std::__shared_count" }

; Function Attrs: mustprogress nounwind uwtable
define linkonce_odr noundef ptr @_ZNKSt12__shared_ptrIN5arrow5FieldELN9__gnu_cxx12_Lock_policyE2EE3getEv(ptr noundef nonnull align 8 dereferenceable(16) %0) #3 comdat align 2 {
  %2 = alloca ptr, align 8
  store ptr %0, ptr %2, align 8, !tbaa !217
  %3 = load ptr, ptr %2, align 8
  %4 = getelementptr inbounds nuw %"class.std::__shared_ptr.45", ptr %3, i32 0, i32 0
  %5 = load ptr, ptr %4, align 8, !tbaa !219
  ret ptr %5
}

; Function Attrs: mustprogress nounwind uwtable
define linkonce_odr noundef ptr @_ZNKSt19__shared_ptr_accessIN5arrow5FieldELN9__gnu_cxx12_Lock_policyE2ELb0ELb0EE6_M_getEv(ptr noundef nonnull align 1 dereferenceable(1) %0) #3 comdat align 2 {
  %2 = alloca ptr, align 8
  store ptr %0, ptr %2, align 8, !tbaa !213
  %3 = load ptr, ptr %2, align 8
  %4 = call noundef ptr @_ZNKSt12__shared_ptrIN5arrow5FieldELN9__gnu_cxx12_Lock_policyE2EE3getEv(ptr noundef nonnull align 8 dereferenceable(16) %3) #20
  ret ptr %4
}

; Function Attrs: mustprogress nounwind uwtable
define linkonce_odr noundef nonnull align 8 dereferenceable(16) ptr @_ZNK5arrow5Field4typeEv(ptr noundef nonnull align 8 dereferenceable(96) %0) #3 comdat align 2 {
  %2 = alloca ptr, align 8
  store ptr %0, ptr %2, align 8, !tbaa !215
  %3 = load ptr, ptr %2, align 8
  %4 = getelementptr inbounds nuw %"class.arrow::Field", ptr %3, i32 0, i32 2
  ret ptr %4
}

; Function Attrs: mustprogress nounwind uwtable
define linkonce_odr noundef ptr @_ZNKSt19__shared_ptr_accessIN5arrow5FieldELN9__gnu_cxx12_Lock_policyE2ELb0ELb0EEptEv(ptr noundef nonnull align 1 dereferenceable(1) %0) #3 comdat align 2 {
  %2 = alloca ptr, align 8
  store ptr %0, ptr %2, align 8, !tbaa !213
  %3 = load ptr, ptr %2, align 8
  %4 = call noundef ptr @_ZNKSt19__shared_ptr_accessIN5arrow5FieldELN9__gnu_cxx12_Lock_policyE2ELb0ELb0EE6_M_getEv(ptr noundef nonnull align 1 dereferenceable(1) %3) #20
  ret ptr %4
}

; Function Attrs: mustprogress nounwind uwtable
define linkonce_odr noundef nonnull align 8 dereferenceable(16) ptr @_ZNKSt6vectorISt10shared_ptrIN5arrow5FieldEESaIS3_EEixEm(ptr noundef nonnull align 8 dereferenceable(24) %0, i64 noundef %1) #3 comdat align 2 {
  %3 = alloca ptr, align 8
  %4 = alloca i64, align 8
  store ptr %0, ptr %3, align 8, !tbaa !210
  store i64 %1, ptr %4, align 8, !tbaa !50
  %5 = load ptr, ptr %3, align 8
  %6 = getelementptr inbounds nuw %"struct.std::_Vector_base.1", ptr %5, i32 0, i32 0
  %7 = getelementptr inbounds nuw %"struct.std::_Vector_base<std::shared_ptr<arrow::Field>, std::allocator<std::shared_ptr<arrow::Field>>>::_Vector_impl_data", ptr %6, i32 0, i32 0
  %8 = load ptr, ptr %7, align 8, !tbaa !212
  %9 = load i64, ptr %4, align 8, !tbaa !50
  %10 = getelementptr inbounds nuw %"class.std::shared_ptr.44", ptr %8, i64 %9
  ret ptr %10
}

; Function Attrs: inlinehint mustprogress nounwind uwtable
define linkonce_odr noundef ptr @_ZN5arrow8internal12checked_castIPKNS_17FixedSizeListTypeERPNS_8DataTypeEEET_OT0_(ptr noundef nonnull align 8 dereferenceable(8) %0) #4 comdat {
  %2 = alloca ptr, align 8
  store ptr %0, ptr %2, align 8, !tbaa !147
  %3 = load ptr, ptr %2, align 8, !tbaa !147
  %4 = load ptr, ptr %3, align 8, !tbaa !22
  ret ptr %4
}

; Function Attrs: mustprogress nounwind uwtable
define linkonce_odr noundef ptr @_ZNKSt12__shared_ptrIN5arrow8DataTypeELN9__gnu_cxx12_Lock_policyE2EE3getEv(ptr noundef nonnull align 8 dereferenceable(16) %0) #3 comdat align 2 {
  %2 = alloca ptr, align 8
  store ptr %0, ptr %2, align 8, !tbaa !191
  %3 = load ptr, ptr %2, align 8
  %4 = getelementptr inbounds nuw %"class.std::__shared_ptr", ptr %3, i32 0, i32 0
  %5 = load ptr, ptr %4, align 8, !tbaa !193
  ret ptr %5
}

; Function Attrs: mustprogress uwtable
define linkonce_odr noundef nonnull align 8 dereferenceable(16) ptr @_ZNK5arrow12BaseListType10value_typeEv(ptr noundef nonnull align 8 dereferenceable(72) %0) #0 comdat align 2 {
  %2 = alloca ptr, align 8
  store ptr %0, ptr %2, align 8, !tbaa !124
  %3 = load ptr, ptr %2, align 8
  %4 = getelementptr inbounds nuw %"class.arrow::DataType", ptr %3, i32 0, i32 3
  %5 = call noundef nonnull align 8 dereferenceable(16) ptr @_ZNKSt6vectorISt10shared_ptrIN5arrow5FieldEESaIS3_EEixEm(ptr noundef nonnull align 8 dereferenceable(24) %4, i64 noundef 0) #20
  %6 = call noundef ptr @_ZNKSt19__shared_ptr_accessIN5arrow5FieldELN9__gnu_cxx12_Lock_policyE2ELb0ELb0EEptEv(ptr noundef nonnull align 1 dereferenceable(1) %5) #20
  %7 = call noundef nonnull align 8 dereferenceable(16) ptr @_ZNK5arrow5Field4typeEv(ptr noundef nonnull align 8 dereferenceable(96) %6)
  ret ptr %7
}

; Function Attrs: mustprogress nounwind uwtable
define linkonce_odr noundef i32 @_ZNK5arrow17FixedSizeListType9list_sizeEv(ptr noundef nonnull align 8 dereferenceable(76) %0) #3 comdat align 2 {
  %2 = alloca ptr, align 8
  store ptr %0, ptr %2, align 8, !tbaa !32
  %3 = load ptr, ptr %2, align 8
  %4 = getelementptr inbounds nuw %"class.arrow::FixedSizeListType", ptr %3, i32 0, i32 1
  %5 = load i32, ptr %4, align 8, !tbaa !131
  ret i32 %5
}

; Function Attrs: mustprogress nounwind uwtable
define linkonce_odr noundef zeroext i1 @_ZN5arrow20is_fixed_size_binaryENS_4Type4typeE(i32 noundef %0) #3 comdat {
  %2 = alloca i1, align 1
  %3 = alloca i32, align 4
  store i32 %0, ptr %3, align 4, !tbaa !26
  %4 = load i32, ptr %3, align 4, !tbaa !26
  switch i32 %4, label %6 [
    i32 43, label %5
    i32 44, label %5
    i32 23, label %5
    i32 24, label %5
    i32 15, label %5
  ]

5:                                                ; preds = %1, %1, %1, %1, %1
  store i1 true, ptr %2, align 1
  br label %8

6:                                                ; preds = %1
  br label %7

7:                                                ; preds = %6
  store i1 false, ptr %2, align 1
  br label %8

8:                                                ; preds = %7, %5
  %9 = load i1, ptr %2, align 1
  ret i1 %9
}

; Function Attrs: mustprogress nounwind uwtable
define linkonce_odr noundef zeroext i1 @_ZN5arrow13is_dictionaryENS_4Type4typeE(i32 noundef %0) #3 comdat {
  %2 = alloca i32, align 4
  store i32 %0, ptr %2, align 4, !tbaa !26
  %3 = load i32, ptr %2, align 4, !tbaa !26
  %4 = icmp eq i32 %3, 29
  ret i1 %4
}

; Function Attrs: mustprogress nounwind uwtable
define linkonce_odr noundef zeroext i1 @_ZN5arrow12is_primitiveENS_4Type4typeE(i32 noundef %0) #3 comdat {
  %2 = alloca i1, align 1
  %3 = alloca i32, align 4
  store i32 %0, ptr %3, align 4, !tbaa !26
  %4 = load i32, ptr %3, align 4, !tbaa !26
  switch i32 %4, label %6 [
    i32 1, label %5
    i32 2, label %5
    i32 3, label %5
    i32 4, label %5
    i32 5, label %5
    i32 6, label %5
    i32 7, label %5
    i32 8, label %5
    i32 9, label %5
    i32 10, label %5
    i32 11, label %5
    i32 12, label %5
    i32 16, label %5
    i32 17, label %5
    i32 19, label %5
    i32 20, label %5
    i32 18, label %5
    i32 33, label %5
    i32 21, label %5
    i32 37, label %5
    i32 22, label %5
  ]

5:                                                ; preds = %1, %1, %1, %1, %1, %1, %1, %1, %1, %1, %1, %1, %1, %1, %1, %1, %1, %1, %1, %1, %1
  store i1 true, ptr %2, align 1
  br label %8

6:                                                ; preds = %1
  br label %7

7:                                                ; preds = %6
  store i1 false, ptr %2, align 1
  br label %8

8:                                                ; preds = %7, %5
  %9 = load i1, ptr %2, align 1
  ret i1 %9
}

; Function Attrs: mustprogress uwtable
define internal noundef i64 @_ZN5arrow4utilL25FixedWidthInBytesFallbackERKNS_17FixedSizeListTypeE(ptr noundef nonnull align 8 dereferenceable(76) %0) #0 {
  %2 = alloca i64, align 8
  %3 = alloca ptr, align 8
  %4 = alloca ptr, align 8
  %5 = alloca i64, align 8
  %6 = alloca ptr, align 8
  %7 = alloca i64, align 8
  %8 = alloca i32, align 4
  store ptr %0, ptr %3, align 8, !tbaa !32
  call void @llvm.lifetime.start.p0(i64 8, ptr %4) #20
  %9 = load ptr, ptr %3, align 8, !tbaa !32
  store ptr %9, ptr %4, align 8, !tbaa !32
  call void @llvm.lifetime.start.p0(i64 8, ptr %5) #20
  %10 = load ptr, ptr %4, align 8, !tbaa !32
  %11 = call noundef i32 @_ZNK5arrow17FixedSizeListType9list_sizeEv(ptr noundef nonnull align 8 dereferenceable(76) %10)
  %12 = sext i32 %11 to i64
  store i64 %12, ptr %5, align 8, !tbaa !50
  call void @llvm.lifetime.start.p0(i64 8, ptr %6) #20
  %13 = load ptr, ptr %4, align 8, !tbaa !32
  %14 = call noundef nonnull align 8 dereferenceable(16) ptr @_ZNK5arrow12BaseListType10value_typeEv(ptr noundef nonnull align 8 dereferenceable(72) %13)
  %15 = call noundef ptr @_ZNKSt12__shared_ptrIN5arrow8DataTypeELN9__gnu_cxx12_Lock_policyE2EE3getEv(ptr noundef nonnull align 8 dereferenceable(16) %14) #20
  store ptr %15, ptr %6, align 8, !tbaa !22
  br label %16

16:                                               ; preds = %20, %1
  %17 = load ptr, ptr %6, align 8, !tbaa !22
  %18 = call noundef i32 @_ZNK5arrow8DataType2idEv(ptr noundef nonnull align 8 dereferenceable(72) %17)
  %19 = icmp eq i32 %18, 32
  br i1 %19, label %20, label %30

20:                                               ; preds = %16
  %21 = call noundef ptr @_ZN5arrow8internal12checked_castIPKNS_17FixedSizeListTypeERPNS_8DataTypeEEET_OT0_(ptr noundef nonnull align 8 dereferenceable(8) %6)
  store ptr %21, ptr %4, align 8, !tbaa !32
  %22 = load ptr, ptr %4, align 8, !tbaa !32
  %23 = call noundef i32 @_ZNK5arrow17FixedSizeListType9list_sizeEv(ptr noundef nonnull align 8 dereferenceable(76) %22)
  %24 = sext i32 %23 to i64
  %25 = load i64, ptr %5, align 8, !tbaa !50
  %26 = mul nsw i64 %25, %24
  store i64 %26, ptr %5, align 8, !tbaa !50
  %27 = load ptr, ptr %4, align 8, !tbaa !32
  %28 = call noundef nonnull align 8 dereferenceable(16) ptr @_ZNK5arrow12BaseListType10value_typeEv(ptr noundef nonnull align 8 dereferenceable(72) %27)
  %29 = call noundef ptr @_ZNKSt12__shared_ptrIN5arrow8DataTypeELN9__gnu_cxx12_Lock_policyE2EE3getEv(ptr noundef nonnull align 8 dereferenceable(16) %28) #20
  store ptr %29, ptr %6, align 8, !tbaa !22
  br label %16, !llvm.loop !51

30:                                               ; preds = %16
  %31 = load ptr, ptr %6, align 8, !tbaa !22
  %32 = call noundef i32 @_ZNK5arrow8DataType2idEv(ptr noundef nonnull align 8 dereferenceable(72) %31)
  %33 = icmp ne i32 %32, 1
  br i1 %33, label %34, label %57

34:                                               ; preds = %30
  %35 = load ptr, ptr %6, align 8, !tbaa !22
  %36 = call noundef i32 @_ZNK5arrow8DataType2idEv(ptr noundef nonnull align 8 dereferenceable(72) %35)
  %37 = call noundef zeroext i1 @_ZN5arrow14is_fixed_widthENS_4Type4typeE(i32 noundef %36)
  br i1 %37, label %38, label %57

38:                                               ; preds = %34
  call void @llvm.lifetime.start.p0(i64 8, ptr %7) #20
  %39 = load i64, ptr %5, align 8, !tbaa !50
  %40 = load ptr, ptr %6, align 8, !tbaa !22
  %41 = load ptr, ptr %40, align 8, !tbaa !28
  %42 = getelementptr inbounds ptr, ptr %41, i64 8
  %43 = load ptr, ptr %42, align 8
  %44 = call noundef i32 %43(ptr noundef nonnull align 8 dereferenceable(72) %40)
  %45 = sext i32 %44 to i64
  %46 = mul nsw i64 %39, %45
  store i64 %46, ptr %7, align 8, !tbaa !50
  br label %47

47:                                               ; preds = %48, %38
  br i1 false, label %48, label %49

48:                                               ; preds = %47
  br label %47, !llvm.loop !52

49:                                               ; preds = %47
  br label %50

50:                                               ; preds = %51, %49
  br i1 false, label %51, label %52

51:                                               ; preds = %50
  br label %50, !llvm.loop !53

52:                                               ; preds = %50
  br label %53

53:                                               ; preds = %54, %52
  br i1 false, label %54, label %55

54:                                               ; preds = %53
  br label %53, !llvm.loop !54

55:                                               ; preds = %53
  %56 = load i64, ptr %7, align 8, !tbaa !50
  store i64 %56, ptr %2, align 8
  store i32 1, ptr %8, align 4
  call void @llvm.lifetime.end.p0(i64 8, ptr %7) #20
  br label %58

57:                                               ; preds = %34, %30
  store i32 2, ptr %8, align 4
  br label %58

58:                                               ; preds = %57, %55
  call void @llvm.lifetime.end.p0(i64 8, ptr %6) #20
  %59 = load i32, ptr %8, align 4
  switch i32 %59, label %61 [
    i32 2, label %60
  ]

60:                                               ; preds = %58
  store i64 -1, ptr %2, align 8
  store i32 1, ptr %8, align 4
  br label %61

61:                                               ; preds = %60, %58
  call void @llvm.lifetime.end.p0(i64 8, ptr %5) #20
  call void @llvm.lifetime.end.p0(i64 8, ptr %4) #20
  %62 = load i64, ptr %2, align 8
  ret i64 %62
}

; Function Attrs: inlinehint mustprogress nounwind uwtable
define linkonce_odr noundef nonnull align 8 dereferenceable(76) ptr @_ZN5arrow8internal12checked_castIRKNS_17FixedSizeListTypeERKNS_8DataTypeEEET_OT0_(ptr noundef nonnull align 8 dereferenceable(72) %0) #4 comdat {
  %2 = alloca ptr, align 8
  store ptr %0, ptr %2, align 8, !tbaa !22
  %3 = load ptr, ptr %2, align 8, !tbaa !22
  ret ptr %3
}

; Function Attrs: mustprogress uwtable
define linkonce_odr noundef zeroext i1 @_ZN5arrow14is_fixed_widthENS_4Type4typeE(i32 noundef %0) #0 comdat {
  %2 = alloca i32, align 4
  store i32 %0, ptr %2, align 4, !tbaa !26
  %3 = load i32, ptr %2, align 4, !tbaa !26
  %4 = call noundef zeroext i1 @_ZN5arrow12is_primitiveENS_4Type4typeE(i32 noundef %3)
  br i1 %4, label %11, label %5

5:                                                ; preds = %1
  %6 = load i32, ptr %2, align 4, !tbaa !26
  %7 = call noundef zeroext i1 @_ZN5arrow13is_dictionaryENS_4Type4typeE(i32 noundef %6)
  br i1 %7, label %11, label %8

8:                                                ; preds = %5
  %9 = load i32, ptr %2, align 4, !tbaa !26
  %10 = call noundef zeroext i1 @_ZN5arrow20is_fixed_size_binaryENS_4Type4typeE(i32 noundef %9)
  br label %11

11:                                               ; preds = %8, %5, %1
  %12 = phi i1 [ true, %5 ], [ true, %1 ], [ %10, %8 ]
  ret i1 %12
}

; Function Attrs: mustprogress nounwind uwtable
define linkonce_odr noundef i32 @_ZNK5arrow8DataType2idEv(ptr noundef nonnull align 8 dereferenceable(72) %0) #3 comdat align 2 {
  %2 = alloca ptr, align 8
  store ptr %0, ptr %2, align 8, !tbaa !22
  %3 = load ptr, ptr %2, align 8
  %4 = getelementptr inbounds nuw %"class.arrow::DataType", ptr %3, i32 0, i32 2
  %5 = load i32, ptr %4, align 8, !tbaa !34
  ret i32 %5
}

; Function Attrs: mustprogress uwtable
define noundef i64 @_ZN5arrow4util17FixedWidthInBytesERKNS_8DataTypeE(ptr noundef nonnull align 8 dereferenceable(72) %0) #0 {
  %2 = alloca i64, align 8
  %3 = alloca ptr, align 8
  %4 = alloca i32, align 4
  %5 = alloca i32, align 4
  %6 = alloca i32, align 4
  %7 = alloca ptr, align 8
  store ptr %0, ptr %3, align 8, !tbaa !22
  call void @llvm.lifetime.start.p0(i64 4, ptr %4) #20
  %8 = load ptr, ptr %3, align 8, !tbaa !22
  %9 = call noundef i32 @_ZNK5arrow8DataType2idEv(ptr noundef nonnull align 8 dereferenceable(72) %8)
  store i32 %9, ptr %4, align 4, !tbaa !26
  %10 = load i32, ptr %4, align 4, !tbaa !26
  %11 = call noundef zeroext i1 @_ZN5arrow14is_fixed_widthENS_4Type4typeE(i32 noundef %10)
  br i1 %11, label %12, label %27

12:                                               ; preds = %1
  call void @llvm.lifetime.start.p0(i64 4, ptr %5) #20
  %13 = load ptr, ptr %3, align 8, !tbaa !22
  %14 = load ptr, ptr %13, align 8, !tbaa !28
  %15 = getelementptr inbounds ptr, ptr %14, i64 9
  %16 = load ptr, ptr %15, align 8
  %17 = call noundef i32 %16(ptr noundef nonnull align 8 dereferenceable(72) %13)
  store i32 %17, ptr %5, align 4, !tbaa !30
  %18 = load i32, ptr %4, align 4, !tbaa !26
  %19 = icmp eq i32 %18, 1
  br i1 %19, label %20, label %21

20:                                               ; preds = %12
  br label %24

21:                                               ; preds = %12
  %22 = load i32, ptr %5, align 4, !tbaa !30
  %23 = sdiv i32 %22, 8
  br label %24

24:                                               ; preds = %21, %20
  %25 = phi i32 [ -1, %20 ], [ %23, %21 ]
  %26 = sext i32 %25 to i64
  store i64 %26, ptr %2, align 8
  store i32 1, ptr %6, align 4
  call void @llvm.lifetime.end.p0(i64 4, ptr %5) #20
  br label %36

27:                                               ; preds = %1
  %28 = load i32, ptr %4, align 4, !tbaa !26
  %29 = icmp eq i32 %28, 32
  br i1 %29, label %30, label %35

30:                                               ; preds = %27
  call void @llvm.lifetime.start.p0(i64 8, ptr %7) #20
  %31 = load ptr, ptr %3, align 8, !tbaa !22
  %32 = call noundef nonnull align 8 dereferenceable(76) ptr @_ZN5arrow8internal12checked_castIRKNS_17FixedSizeListTypeERKNS_8DataTypeEEET_OT0_(ptr noundef nonnull align 8 dereferenceable(72) %31)
  store ptr %32, ptr %7, align 8, !tbaa !32
  %33 = load ptr, ptr %7, align 8, !tbaa !32
  %34 = call noundef i64 @_ZN5arrow4utilL25FixedWidthInBytesFallbackERKNS_17FixedSizeListTypeE(ptr noundef nonnull align 8 dereferenceable(76) %33)
  store i64 %34, ptr %2, align 8
  store i32 1, ptr %6, align 4
  call void @llvm.lifetime.end.p0(i64 8, ptr %7) #20
  br label %36

35:                                               ; preds = %27
  store i64 -1, ptr %2, align 8
  store i32 1, ptr %6, align 4
  br label %36

36:                                               ; preds = %35, %30, %24
  call void @llvm.lifetime.end.p0(i64 4, ptr %4) #20
  %37 = load i64, ptr %2, align 8
  ret i64 %37
}