; Function Attrs: mustprogress uwtable
define noundef i64 @_ZN5arrow4util17FixedWidthInBytesERKNS_8DataTypeE(ptr noundef nonnull align 8 dereferenceable(72) %0) local_unnamed_addr #0 {
  %2 = getelementptr inbounds nuw i8, ptr %0, i64 40
  %3 = load i32, ptr %2, align 8, !tbaa !15
  switch i32 %3, label %_ZN5arrow4utilL25FixedWidthInBytesFallbackERKNS_17FixedSizeListTypeE.exit [
    i32 1, label %4
    i32 2, label %4
    i32 3, label %4
    i32 4, label %4
    i32 5, label %4
    i32 6, label %4
    i32 7, label %4
    i32 8, label %4
    i32 9, label %4
    i32 10, label %4
    i32 11, label %4
    i32 12, label %4
    i32 16, label %4
    i32 17, label %4
    i32 19, label %4
    i32 20, label %4
    i32 18, label %4
    i32 33, label %4
    i32 21, label %4
    i32 37, label %4
    i32 22, label %4
    i32 29, label %4
    i32 43, label %4
    i32 44, label %4
    i32 23, label %4
    i32 24, label %4
    i32 15, label %4
    i32 32, label %13
  ]

4:                                                ; preds = %1, %1, %1, %1, %1, %1, %1, %1, %1, %1, %1, %1, %1, %1, %1, %1, %1, %1, %1, %1, %1, %1, %1, %1, %1, %1, %1
  %5 = load ptr, ptr %0, align 8, !tbaa !36
  %6 = getelementptr inbounds nuw i8, ptr %5, i64 72
  %7 = load ptr, ptr %6, align 8
  %8 = tail call noundef i32 %7(ptr noundef nonnull align 8 dereferenceable(72) %0)
  %9 = icmp eq i32 %3, 1
  br i1 %9, label %_ZN5arrow4utilL25FixedWidthInBytesFallbackERKNS_17FixedSizeListTypeE.exit, label %10

10:                                               ; preds = %4
  %11 = sdiv i32 %8, 8
  %12 = sext i32 %11 to i64
  br label %_ZN5arrow4utilL25FixedWidthInBytesFallbackERKNS_17FixedSizeListTypeE.exit

13:                                               ; preds = %1
  %14 = getelementptr inbounds nuw i8, ptr %0, i64 72
  %.val8 = load i32, ptr %14, align 8, !tbaa !38
  %15 = sext i32 %.val8 to i64
  br label %16

16:                                               ; preds = %19, %13
  %.pn = phi ptr [ %0, %13 ], [ %storemerge.i, %19 ]
  %.010.i = phi i64 [ %15, %13 ], [ %23, %19 ]
  %.val.val.pn.in.in = getelementptr inbounds nuw i8, ptr %.pn, i64 48
  %.val.val.pn.in = load ptr, ptr %.val.val.pn.in.in, align 8, !tbaa !43
  %.val.val.pn = load ptr, ptr %.val.val.pn.in, align 8, !tbaa !44
  %storemerge.i.in = getelementptr i8, ptr %.val.val.pn, i64 56
  %storemerge.i = load ptr, ptr %storemerge.i.in, align 8, !tbaa !48
  %17 = getelementptr inbounds nuw i8, ptr %storemerge.i, i64 40
  %18 = load i32, ptr %17, align 8, !tbaa !15
  switch i32 %18, label %_ZN5arrow4utilL25FixedWidthInBytesFallbackERKNS_17FixedSizeListTypeE.exit [
    i32 32, label %19
    i32 24, label %_ZN5arrow14is_fixed_widthENS_4Type4typeE.exit.i
    i32 15, label %_ZN5arrow14is_fixed_widthENS_4Type4typeE.exit.i
    i32 2, label %_ZN5arrow14is_fixed_widthENS_4Type4typeE.exit.i
    i32 3, label %_ZN5arrow14is_fixed_widthENS_4Type4typeE.exit.i
    i32 4, label %_ZN5arrow14is_fixed_widthENS_4Type4typeE.exit.i
    i32 5, label %_ZN5arrow14is_fixed_widthENS_4Type4typeE.exit.i
    i32 6, label %_ZN5arrow14is_fixed_widthENS_4Type4typeE.exit.i
    i32 7, label %_ZN5arrow14is_fixed_widthENS_4Type4typeE.exit.i
    i32 8, label %_ZN5arrow14is_fixed_widthENS_4Type4typeE.exit.i
    i32 9, label %_ZN5arrow14is_fixed_widthENS_4Type4typeE.exit.i
    i32 10, label %_ZN5arrow14is_fixed_widthENS_4Type4typeE.exit.i
    i32 11, label %_ZN5arrow14is_fixed_widthENS_4Type4typeE.exit.i
    i32 12, label %_ZN5arrow14is_fixed_widthENS_4Type4typeE.exit.i
    i32 16, label %_ZN5arrow14is_fixed_widthENS_4Type4typeE.exit.i
    i32 17, label %_ZN5arrow14is_fixed_widthENS_4Type4typeE.exit.i
    i32 19, label %_ZN5arrow14is_fixed_widthENS_4Type4typeE.exit.i
    i32 20, label %_ZN5arrow14is_fixed_widthENS_4Type4typeE.exit.i
    i32 18, label %_ZN5arrow14is_fixed_widthENS_4Type4typeE.exit.i
    i32 33, label %_ZN5arrow14is_fixed_widthENS_4Type4typeE.exit.i
    i32 21, label %_ZN5arrow14is_fixed_widthENS_4Type4typeE.exit.i
    i32 37, label %_ZN5arrow14is_fixed_widthENS_4Type4typeE.exit.i
    i32 22, label %_ZN5arrow14is_fixed_widthENS_4Type4typeE.exit.i
    i32 29, label %_ZN5arrow14is_fixed_widthENS_4Type4typeE.exit.i
    i32 43, label %_ZN5arrow14is_fixed_widthENS_4Type4typeE.exit.i
    i32 44, label %_ZN5arrow14is_fixed_widthENS_4Type4typeE.exit.i
    i32 23, label %_ZN5arrow14is_fixed_widthENS_4Type4typeE.exit.i
  ]

19:                                               ; preds = %16
  %20 = getelementptr inbounds nuw i8, ptr %storemerge.i, i64 72
  %21 = load i32, ptr %20, align 8, !tbaa !38
  %22 = sext i32 %21 to i64
  %23 = mul nsw i64 %.010.i, %22
  br label %16, !llvm.loop !50

_ZN5arrow14is_fixed_widthENS_4Type4typeE.exit.i:  ; preds = %16, %16, %16, %16, %16, %16, %16, %16, %16, %16, %16, %16, %16, %16, %16, %16, %16, %16, %16, %16, %16, %16, %16, %16, %16, %16
  %24 = load ptr, ptr %storemerge.i, align 8, !tbaa !36
  %25 = getelementptr inbounds nuw i8, ptr %24, i64 64
  %26 = load ptr, ptr %25, align 8
  %27 = tail call noundef i32 %26(ptr noundef nonnull align 8 dereferenceable(72) %storemerge.i)
  %28 = sext i32 %27 to i64
  %29 = mul nsw i64 %.010.i, %28
  br label %_ZN5arrow4utilL25FixedWidthInBytesFallbackERKNS_17FixedSizeListTypeE.exit

_ZN5arrow4utilL25FixedWidthInBytesFallbackERKNS_17FixedSizeListTypeE.exit: ; preds = %16, %1, %_ZN5arrow14is_fixed_widthENS_4Type4typeE.exit.i, %10, %4
  %.0 = phi i64 [ %12, %10 ], [ -1, %4 ], [ %29, %_ZN5arrow14is_fixed_widthENS_4Type4typeE.exit.i ], [ -1, %1 ], [ -1, %16 ]
  ret i64 %.0
}